; Function Attrs: mustprogress uwtable
define hidden void @_ZN4cvc56parser14Smt2TermParser16parseNumeralListB5cxx11Ev(ptr noalias sret(%"class.std::vector.113") align 8 %agg.result, ptr nocapture noundef nonnull readonly align 8 dereferenceable(24) %this) local_unnamed_addr #5 align 2 personality ptr @__gxx_personality_v0 {
entry:
  %ref.tmp = alloca ptr, align 8
  tail call void @llvm.memset.p0.i64(ptr noundef nonnull align 8 dereferenceable(24) %agg.result, i8 0, i64 24, i1 false)
  %d_lex = getelementptr inbounds i8, ptr %this, i64 8
  %0 = load ptr, ptr %d_lex, align 8
  %call = invoke noundef i32 @_ZN4cvc56parser5Lexer9nextTokenEv(ptr noundef nonnull align 8 dereferenceable(32892) %0)
          to label %while.cond.preheader unwind label %lpad.loopexit.split-lp

while.cond.preheader:                             ; preds = %entry
  %_M_finish.i = getelementptr inbounds i8, ptr %agg.result, i64 8
  %_M_end_of_storage.i = getelementptr inbounds i8, ptr %agg.result, i64 16
  br label %while.cond

while.cond:                                       ; preds = %while.cond.preheader, %invoke.cont5
  %tok.0 = phi i32 [ %call9, %invoke.cont5 ], [ %call, %while.cond.preheader ]
  %cmp = icmp eq i32 %tok.0, 59
  %1 = load ptr, ptr %d_lex, align 8
  br i1 %cmp, label %while.body, label %while.end

while.body:                                       ; preds = %while.cond
  %vtable = load ptr, ptr %1, align 8
  %vfn = getelementptr inbounds i8, ptr %vtable, i64 24
  %2 = load ptr, ptr %vfn, align 8
  %call4 = invoke noundef ptr %2(ptr noundef nonnull align 8 dereferenceable(33178) %1)
          to label %invoke.cont3 unwind label %lpad.loopexit

invoke.cont3:                                     ; preds = %while.body
  store ptr %call4, ptr %ref.tmp, align 8
  %3 = load ptr, ptr %_M_finish.i, align 8
  %4 = load ptr, ptr %_M_end_of_storage.i, align 8
  %cmp.not.i = icmp eq ptr %3, %4
  br i1 %cmp.not.i, label %if.else.i, label %if.then.i

if.then.i:                                        ; preds = %invoke.cont3
  invoke void @_ZNSt15__new_allocatorINSt7__cxx1112basic_stringIcSt11char_traitsIcESaIcEEEE9constructIS5_JPKcEEEvPT_DpOT0_(ptr noundef nonnull align 1 dereferenceable(1) %agg.result, ptr noundef %3, ptr noundef nonnull align 8 dereferenceable(8) %ref.tmp)
          to label %.noexc unwind label %lpad.loopexit

.noexc:                                           ; preds = %if.then.i
  %5 = load ptr, ptr %_M_finish.i, align 8
  %incdec.ptr.i = getelementptr inbounds i8, ptr %5, i64 32
  store ptr %incdec.ptr.i, ptr %_M_finish.i, align 8
  br label %invoke.cont5

if.else.i:                                        ; preds = %invoke.cont3
  invoke void @_ZNSt6vectorINSt7__cxx1112basic_stringIcSt11char_traitsIcESaIcEEESaIS5_EE17_M_realloc_insertIJPKcEEEvN9__gnu_cxx17__normal_iteratorIPS5_S7_EEDpOT_(ptr noundef nonnull align 8 dereferenceable(24) %agg.result, ptr %3, ptr noundef nonnull align 8 dereferenceable(8) %ref.tmp)
          to label %invoke.cont5 unwind label %lpad.loopexit

invoke.cont5:                                     ; preds = %if.else.i, %.noexc
  %6 = load ptr, ptr %d_lex, align 8
  %call9 = invoke noundef i32 @_ZN4cvc56parser5Lexer9nextTokenEv(ptr noundef nonnull align 8 dereferenceable(32892) %6)
          to label %while.cond unwind label %lpad.loopexit, !llvm.loop !24

lpad.loopexit:                                    ; preds = %while.body, %invoke.cont5, %if.then.i, %if.else.i
  %lpad.loopexit3 = landingpad { ptr, i32 }
          cleanup
  br label %lpad

lpad.loopexit.split-lp:                           ; preds = %entry, %while.end
  %lpad.loopexit.split-lp4 = landingpad { ptr, i32 }
          cleanup
  br label %lpad

lpad:                                             ; preds = %lpad.loopexit.split-lp, %lpad.loopexit
  %lpad.phi = phi { ptr, i32 } [ %lpad.loopexit3, %lpad.loopexit ], [ %lpad.loopexit.split-lp4, %lpad.loopexit.split-lp ]
  call void @_ZNSt6vectorINSt7__cxx1112basic_stringIcSt11char_traitsIcESaIcEEESaIS5_EED2Ev(ptr noundef nonnull align 8 dereferenceable(24) %agg.result) #19
  resume { ptr, i32 } %lpad.phi

while.end:                                        ; preds = %while.cond
  invoke void @_ZN4cvc56parser5Lexer13reinsertTokenENS0_5TokenE(ptr noundef nonnull align 8 dereferenceable(32892) %1, i32 noundef %tok.0)
          to label %nrvo.skipdtor unwind label %lpad.loopexit.split-lp

nrvo.skipdtor:                                    ; preds = %while.end
  ret void
}